; ModuleID = '31/1046.c'
source_filename = "31/1046.c"
target datalayout = "e-m:e-p270:32:32-p271:32:32-p272:64:64-i64:64-f80:128-n8:16:32:64-S128"
target triple = "x86_64-pc-linux-gnu"

%struct.node = type { [100 x i8], %struct.node* }

@.str = private unnamed_addr constant [4 x i8] c"end\00", align 1
@head = common dso_local global %struct.node* null, align 8

; Function Attrs: noinline nounwind uwtable
define dso_local void @main() #0 {
  %1 = alloca %struct.node*, align 8
  %2 = alloca %struct.node*, align 8
  %3 = alloca %struct.node*, align 8
  %4 = call noalias i8* @malloc(i64 100) #4
  %5 = bitcast i8* %4 to %struct.node*
  store %struct.node* %5, %struct.node** %2, align 8
  store %struct.node* %5, %struct.node** %1, align 8
  %6 = load %struct.node*, %struct.node** %1, align 8
  %7 = getelementptr inbounds %struct.node, %struct.node* %6, i32 0, i32 0
  %8 = getelementptr inbounds [100 x i8], [100 x i8]* %7, i64 0, i64 0
  %9 = call i32 (i8*, ...) bitcast (i32 (...)* @gets to i32 (i8*, ...)*)(i8* %8)
  %10 = load %struct.node*, %struct.node** %1, align 8
  %11 = getelementptr inbounds %struct.node, %struct.node* %10, i32 0, i32 1
  store %struct.node* null, %struct.node** %11, align 8
  br label %12

12:                                               ; preds = %18, %0
  %13 = load %struct.node*, %struct.node** %1, align 8
  %14 = getelementptr inbounds %struct.node, %struct.node* %13, i32 0, i32 0
  %15 = getelementptr inbounds [100 x i8], [100 x i8]* %14, i64 0, i64 0
  %16 = call i32 @strcmp(i8* %15, i8* getelementptr inbounds ([4 x i8], [4 x i8]* @.str, i64 0, i64 0)) #5
  %17 = icmp ne i32 %16, 0
  br i1 %17, label %18, label %30

18:                                               ; preds = %12
  %19 = call noalias i8* @malloc(i64 100) #4
  %20 = bitcast i8* %19 to %struct.node*
  store %struct.node* %20, %struct.node** %1, align 8
  %21 = load %struct.node*, %struct.node** %1, align 8
  %22 = getelementptr inbounds %struct.node, %struct.node* %21, i32 0, i32 0
  %23 = getelementptr inbounds [100 x i8], [100 x i8]* %22, i64 0, i64 0
  %24 = call i32 (i8*, ...) bitcast (i32 (...)* @gets to i32 (i8*, ...)*)(i8* %23)
  %25 = load %struct.node*, %struct.node** %2, align 8
  %26 = load %struct.node*, %struct.node** %1, align 8
  %27 = getelementptr inbounds %struct.node, %struct.node* %26, i32 0, i32 1
  store %struct.node* %25, %struct.node** %27, align 8
  %28 = load %struct.node*, %struct.node** %2, align 8
  store %struct.node* %28, %struct.node** @head, align 8
  %29 = load %struct.node*, %struct.node** %1, align 8
  store %struct.node* %29, %struct.node** %2, align 8
  br label %12

30:                                               ; preds = %12
  %31 = load %struct.node*, %struct.node** @head, align 8
  store %struct.node* %31, %struct.node** %3, align 8
  br label %32

32:                                               ; preds = %35, %30
  %33 = load %struct.node*, %struct.node** %3, align 8
  %34 = icmp ne %struct.node* %33, null
  br i1 %34, label %35, label %43

35:                                               ; preds = %32
  %36 = load %struct.node*, %struct.node** %3, align 8
  %37 = getelementptr inbounds %struct.node, %struct.node* %36, i32 0, i32 0
  %38 = getelementptr inbounds [100 x i8], [100 x i8]* %37, i64 0, i64 0
  %39 = call i32 @puts(i8* %38)
  %40 = load %struct.node*, %struct.node** %3, align 8
  %41 = getelementptr inbounds %struct.node, %struct.node* %40, i32 0, i32 1
  %42 = load %struct.node*, %struct.node** %41, align 8
  store %struct.node* %42, %struct.node** %3, align 8
  br label %32

43:                                               ; preds = %32
  ret void
}

; Function Attrs: nounwind
declare dso_local noalias i8* @malloc(i64) #1

declare dso_local i32 @gets(...) #2

; Function Attrs: nounwind readonly
declare dso_local i32 @strcmp(i8*, i8*) #3

declare dso_local i32 @puts(i8*) #2


!llvm.module.flags = !{!0}
!llvm.ident = !{!1}

!0 = !{i32 1, !"wchar_size", i32 4}
!1 = !{!"clang version 10.0.0-4ubuntu1 "}
